Certificate:
    Data:
        Version: 1 (0x0)
        Serial Number: 2 (0x2)
        Signature Algorithm: sha256WithRSAEncryption
        Issuer: C=VN, ST=HN, L=Hanoi, O=VCS, OU=NSM, CN=Thong
        Validity
            Not Before: Mar 15 17:08:45 2022 GMT
            Not After : Mar 15 17:08:45 2023 GMT
        Subject: C=VN, ST=HN, L=Hanoi, O=VCS, OU=NSM, CN=Thongdm2
        Subject Public Key Info:
            Public Key Algorithm: rsaEncryption
                RSA Public-Key: (2048 bit)
                Modulus:
                    00:af:cb:d4:8e:15:fa:db:e7:3d:ac:af:13:3b:35:
                    5c:af:2a:c3:61:a1:69:3e:53:9a:23:91:64:a8:4b:
                    8c:5b:7b:3d:ff:22:58:5b:42:66:6f:2a:09:d6:f2:
                    4a:6c:b5:70:dc:06:c0:52:cb:5d:6b:40:17:19:2f:
                    4e:97:96:3e:f9:ec:fc:3e:88:45:45:31:2c:4a:1e:
                    29:7e:47:9b:bc:6d:8d:ee:82:d0:71:bd:7b:04:ad:
                    f0:ba:7f:93:19:69:02:62:29:98:13:69:00:cc:56:
                    3e:21:b1:b5:c6:28:26:27:1f:68:91:a9:fd:10:4d:
                    b3:6b:b9:96:a9:69:08:6d:94:f3:fe:cd:cd:85:b9:
                    91:df:d9:40:48:8c:ef:cd:7f:0a:fd:b7:28:92:80:
                    7d:e8:ad:6a:77:24:55:b1:1d:fd:97:ce:9f:c1:3c:
                    96:45:39:bb:8f:cb:5c:7e:6f:d1:ef:39:bf:dc:c2:
                    5e:95:df:f8:6a:d5:de:31:92:28:02:c9:03:97:b1:
                    cc:09:b4:0e:bd:82:42:07:17:6b:8c:d1:d9:6b:f7:
                    3f:09:de:82:1c:3e:16:a2:4f:99:0b:d8:a7:7e:bd:
                    37:f8:b3:51:2b:4f:91:d9:71:8b:4c:7b:e0:85:52:
                    d2:77:1f:fd:2e:22:e8:39:94:15:de:3d:2d:9e:6c:
                    0f:25
                Exponent: 65537 (0x10001)
    Signature Algorithm: sha256WithRSAEncryption
         65:69:bd:b8:59:36:de:12:2c:f4:83:75:f5:27:ad:35:36:06:
         51:3f:44:eb:69:dc:6d:f4:80:9f:31:7f:e4:1b:c5:70:4a:31:
         d1:24:f1:13:dc:7c:a6:d5:60:39:a1:e2:3a:82:5e:88:5c:b1:
         b2:f9:39:20:ca:f2:dc:38:a5:c9:5f:98:7c:8a:52:d6:fd:35:
         35:b2:74:9d:5b:f5:f0:c9:50:0f:50:70:0e:3e:00:31:77:48:
         28:3d:a2:ee:2c:34:22:73:d7:f4:ac:0e:b7:57:c6:54:02:80:
         c7:f7:e4:b7:96:a7:ab:8a:4b:d2:58:53:f2:50:05:1b:1f:80:
         a6:b4:67:7b:48:df:4b:44:e3:07:e3:16:5a:f4:11:d3:3b:90:
         8a:c6:c6:88:b2:57:85:6b:74:85:08:87:7d:62:59:44:52:5e:
         88:f5:fe:90:49:8d:a9:89:9c:f7:13:b7:5c:c3:ac:51:75:7d:
         18:97:bb:7d:19:a9:5f:fa:48:91:66:ba:d8:51:c9:f3:a9:e1:
         bd:50:17:cb:04:0a:41:8a:33:60:df:4b:06:62:09:07:8c:23:
         0a:d1:71:31:af:87:43:44:6f:1c:77:82:13:c2:3b:bc:81:55:
         bf:2b:c5:0c:4d:be:db:c2:95:dc:c5:f1:02:90:bb:fe:5f:12:
         85:6d:47:37
-----BEGIN CERTIFICATE-----
MIIDIzCCAgsCAQIwDQYJKoZIhvcNAQELBQAwVjELMAkGA1UEBhMCVk4xCzAJBgNV
BAgMAkhOMQ4wDAYDVQQHDAVIYW5vaTEMMAoGA1UECgwDVkNTMQwwCgYDVQQLDANO
U00xDjAMBgNVBAMMBVRob25nMB4XDTIyMDMxNTE3MDg0NVoXDTIzMDMxNTE3MDg0
NVowWTELMAkGA1UEBhMCVk4xCzAJBgNVBAgMAkhOMQ4wDAYDVQQHDAVIYW5vaTEM
MAoGA1UECgwDVkNTMQwwCgYDVQQLDANOU00xETAPBgNVBAMMCFRob25nZG0yMIIB
IjANBgkqhkiG9w0BAQEFAAOCAQ8AMIIBCgKCAQEAr8vUjhX62+c9rK8TOzVcryrD
YaFpPlOaI5FkqEuMW3s9/yJYW0JmbyoJ1vJKbLVw3AbAUstda0AXGS9Ol5Y++ez8
PohFRTEsSh4pfkebvG2N7oLQcb17BK3wun+TGWkCYimYE2kAzFY+IbG1xigmJx9o
kan9EE2za7mWqWkIbZTz/s3NhbmR39lASIzvzX8K/bcokoB96K1qdyRVsR39l86f
wTyWRTm7j8tcfm/R7zm/3MJeld/4atXeMZIoAskDl7HMCbQOvYJCBxdrjNHZa/c/
Cd6CHD4Wok+ZC9infr03+LNRK0+R2XGLTHvghVLSdx/9LiLoOZQV3j0tnmwPJQID
AQABMA0GCSqGSIb3DQEBCwUAA4IBAQBlab24WTbeEiz0g3X1J601NgZRP0Tradxt
9ICfMX/kG8VwSjHRJPET3Hym1WA5oeI6gl6IXLGy+TkgyvLcOKXJX5h8ilLW/TU1
snSdW/XwyVAPUHAOPgAxd0goPaLuLDQic9f0rA63V8ZUAoDH9+S3lqerikvSWFPy
UAUbH4CmtGd7SN9LROMH4xZa9BHTO5CKxsaIsleFa3SFCId9YllEUl6I9f6QSY2p
iZz3E7dcw6xRdX0Yl7t9Galf+kiRZrrYUcnzqeG9UBfLBApBijNg30sGYgkHjCMK
0XExr4dDRG8cd4ITwju8gVW/K8UMTb7bwpXcxfECkLv+XxKFbUc3
-----END CERTIFICATE-----
